; Function Attrs: mustprogress nofree norecurse nosync nounwind willreturn memory(readwrite, inaccessiblemem: none) uwtable
define dso_local range(i32 -2, 1) i32 @cm_zlib_inflateGetDictionary(ptr noundef readonly %0, ptr noundef writeonly %1, ptr noundef writeonly %2) local_unnamed_addr #0 {
  %4 = icmp eq ptr %0, null
  br i1 %4, label %inflateStateCheck.exit.thread, label %5

5:                                                ; preds = %3
  %6 = getelementptr inbounds nuw i8, ptr %0, i64 64
  %7 = load ptr, ptr %6, align 8
  %8 = icmp eq ptr %7, null
  br i1 %8, label %inflateStateCheck.exit.thread, label %9

9:                                                ; preds = %5
  %10 = getelementptr inbounds nuw i8, ptr %0, i64 72
  %11 = load ptr, ptr %10, align 8
  %12 = icmp eq ptr %11, null
  br i1 %12, label %inflateStateCheck.exit.thread, label %13

13:                                               ; preds = %9
  %14 = getelementptr inbounds nuw i8, ptr %0, i64 56
  %15 = load ptr, ptr %14, align 8
  %16 = icmp eq ptr %15, null
  br i1 %16, label %inflateStateCheck.exit.thread, label %17

17:                                               ; preds = %13
  %18 = load ptr, ptr %15, align 8
  %.not.i = icmp eq ptr %18, %0
  br i1 %.not.i, label %inflateStateCheck.exit, label %inflateStateCheck.exit.thread

inflateStateCheck.exit:                           ; preds = %17
  %19 = getelementptr inbounds nuw i8, ptr %15, i64 8
  %20 = load i32, ptr %19, align 8
  %21 = add i32 %20, -16180
  %or.cond.i = icmp ult i32 %21, 32
  br i1 %or.cond.i, label %22, label %inflateStateCheck.exit.thread

22:                                               ; preds = %inflateStateCheck.exit
  %23 = getelementptr inbounds nuw i8, ptr %15, i64 64
  %24 = load i32, ptr %23, align 8
  %25 = icmp ne i32 %24, 0
  %26 = icmp ne ptr %1, null
  %or.cond = and i1 %26, %25
  br i1 %or.cond, label %27, label %44

27:                                               ; preds = %22
  %28 = getelementptr inbounds nuw i8, ptr %15, i64 72
  %29 = load ptr, ptr %28, align 8
  %30 = getelementptr inbounds nuw i8, ptr %15, i64 68
  %31 = load i32, ptr %30, align 4
  %32 = zext i32 %31 to i64
  %33 = getelementptr inbounds nuw i8, ptr %29, i64 %32
  %34 = sub i32 %24, %31
  %35 = zext i32 %34 to i64
  tail call void @llvm.memcpy.p0.p0.i64(ptr nonnull align 1 %1, ptr align 1 %33, i64 %35, i1 false)
  %36 = load i32, ptr %23, align 8
  %37 = zext i32 %36 to i64
  %38 = getelementptr inbounds nuw i8, ptr %1, i64 %37
  %39 = load i32, ptr %30, align 4
  %40 = zext i32 %39 to i64
  %41 = sub nsw i64 0, %40
  %42 = getelementptr inbounds i8, ptr %38, i64 %41
  %43 = load ptr, ptr %28, align 8
  tail call void @llvm.memcpy.p0.p0.i64(ptr nonnull align 1 %42, ptr align 1 %43, i64 %40, i1 false)
  br label %44

44:                                               ; preds = %27, %22
  %.not21 = icmp eq ptr %2, null
  br i1 %.not21, label %inflateStateCheck.exit.thread, label %45

45:                                               ; preds = %44
  %46 = load i32, ptr %23, align 8
  store i32 %46, ptr %2, align 4
  br label %inflateStateCheck.exit.thread

inflateStateCheck.exit.thread:                    ; preds = %13, %17, %3, %5, %9, %44, %45, %inflateStateCheck.exit
  %.0 = phi i32 [ -2, %inflateStateCheck.exit ], [ 0, %45 ], [ 0, %44 ], [ -2, %9 ], [ -2, %5 ], [ -2, %3 ], [ -2, %17 ], [ -2, %13 ]
  ret i32 %.0
}